; Function Attrs: nounwind uwtable
define dso_local void @ExecAssignProjectionInfo(ptr noundef %0, ptr noundef %1) local_unnamed_addr #0 {
  %3 = getelementptr inbounds nuw i8, ptr %0, i64 8
  %4 = load ptr, ptr %3, align 8
  %5 = getelementptr inbounds nuw i8, ptr %4, i64 48
  %6 = load ptr, ptr %5, align 8
  %7 = getelementptr inbounds nuw i8, ptr %0, i64 128
  %8 = load ptr, ptr %7, align 8
  %9 = getelementptr inbounds nuw i8, ptr %0, i64 120
  %10 = load ptr, ptr %9, align 8
  %11 = tail call ptr @ExecBuildProjectionInfo(ptr noundef %6, ptr noundef %8, ptr noundef %10, ptr noundef %0, ptr noundef %1) #12
  %12 = getelementptr inbounds nuw i8, ptr %0, i64 136
  store ptr %11, ptr %12, align 8
  ret void
}